target datalayout = "e-m:e-p270:32:32-p271:32:32-p272:64:64-i64:64-i128:128-f80:128-n8:16:32:64-S128"
target triple = "x86_64-pc-linux-gnu"

%class.ref_vector = type { %class.ref_vector_core }
%class.ref_vector_core = type { %class.ref_manager_wrapper, %class.ptr_vector.5 }
%class.ref_manager_wrapper = type { ptr }
%class.ptr_vector.5 = type { %class.vector.6 }
%class.vector.6 = type { ptr }
%"struct.seq::eq" = type { %class.ref_vector, %class.ref_vector }

; Function Attrs: mustprogress nounwind uwtable
define linkonce_odr hidden noundef i32 @_ZNK6vectorIP4exprLb0EjE4sizeEv(ptr noundef nonnull align 8 dereferenceable(8) %0) #4 comdat align 2 {
  %2 = alloca i32, align 4
  %3 = alloca ptr, align 8
  store ptr %0, ptr %3, align 8, !tbaa !363
  %4 = load ptr, ptr %3, align 8
  %5 = getelementptr inbounds nuw %class.vector.6, ptr %4, i32 0, i32 0
  %6 = load ptr, ptr %5, align 8, !tbaa !365
  %7 = icmp eq ptr %6, null
  br i1 %7, label %8, label %9

8:                                                ; preds = %1
  store i32 0, ptr %2, align 4
  br label %14

9:                                                ; preds = %1
  %10 = getelementptr inbounds nuw %class.vector.6, ptr %4, i32 0, i32 0
  %11 = load ptr, ptr %10, align 8, !tbaa !365
  %12 = getelementptr inbounds i32, ptr %11, i64 -1
  %13 = load i32, ptr %12, align 4, !tbaa !8
  store i32 %13, ptr %2, align 4
  br label %14

14:                                               ; preds = %9, %8
  %15 = load i32, ptr %2, align 4
  ret i32 %15
}

; Function Attrs: mustprogress uwtable
define linkonce_odr hidden noundef i32 @_ZNK15ref_vector_coreI4expr19ref_manager_wrapperIS0_11ast_managerEE4sizeEv(ptr noundef nonnull align 8 dereferenceable(16) %0) #6 comdat align 2 {
  %2 = alloca ptr, align 8
  store ptr %0, ptr %2, align 8, !tbaa !219
  %3 = load ptr, ptr %2, align 8
  %4 = getelementptr inbounds nuw %class.ref_vector_core, ptr %3, i32 0, i32 1
  %5 = call noundef i32 @_ZNK6vectorIP4exprLb0EjE4sizeEv(ptr noundef nonnull align 8 dereferenceable(8) %4)
  ret i32 %5
}

; Function Attrs: mustprogress nounwind uwtable
define linkonce_odr hidden noundef ptr @_ZNK6vectorIP4exprLb0EjE5beginEv(ptr noundef nonnull align 8 dereferenceable(8) %0) #4 comdat align 2 {
  %2 = alloca ptr, align 8
  store ptr %0, ptr %2, align 8, !tbaa !363
  %3 = load ptr, ptr %2, align 8
  %4 = getelementptr inbounds nuw %class.vector.6, ptr %3, i32 0, i32 0
  %5 = load ptr, ptr %4, align 8, !tbaa !365
  ret ptr %5
}

; Function Attrs: mustprogress uwtable
define linkonce_odr hidden noundef ptr @_ZNK15ref_vector_coreI4expr19ref_manager_wrapperIS0_11ast_managerEE3endEv(ptr noundef nonnull align 8 dereferenceable(16) %0) #6 comdat align 2 {
  %2 = alloca ptr, align 8
  store ptr %0, ptr %2, align 8, !tbaa !219
  %3 = load ptr, ptr %2, align 8
  %4 = call noundef ptr @_ZNK15ref_vector_coreI4expr19ref_manager_wrapperIS0_11ast_managerEE5beginEv(ptr noundef nonnull align 8 dereferenceable(16) %3)
  %5 = call noundef i32 @_ZNK15ref_vector_coreI4expr19ref_manager_wrapperIS0_11ast_managerEE4sizeEv(ptr noundef nonnull align 8 dereferenceable(16) %3)
  %6 = zext i32 %5 to i64
  %7 = getelementptr inbounds nuw ptr, ptr %4, i64 %6
  ret ptr %7
}

; Function Attrs: mustprogress uwtable
define linkonce_odr hidden noundef ptr @_ZNK15ref_vector_coreI4expr19ref_manager_wrapperIS0_11ast_managerEE5beginEv(ptr noundef nonnull align 8 dereferenceable(16) %0) #6 comdat align 2 {
  %2 = alloca ptr, align 8
  store ptr %0, ptr %2, align 8, !tbaa !219
  %3 = load ptr, ptr %2, align 8
  %4 = getelementptr inbounds nuw %class.ref_vector_core, ptr %3, i32 0, i32 1
  %5 = call noundef ptr @_ZNK6vectorIP4exprLb0EjE5beginEv(ptr noundef nonnull align 8 dereferenceable(8) %4)
  ret ptr %5
}

; Function Attrs: mustprogress uwtable
define hidden noundef zeroext i1 @_ZN3smt10theory_seq10is_complexERKNS0_5depeqE(ptr noundef nonnull align 8 dereferenceable(4328) %0, ptr noundef nonnull align 8 dereferenceable(48) %1) #6 align 2 {
  %3 = alloca ptr, align 8
  %4 = alloca ptr, align 8
  %5 = alloca i32, align 4
  %6 = alloca i32, align 4
  %7 = alloca ptr, align 8
  %8 = alloca ptr, align 8
  %9 = alloca ptr, align 8
  %10 = alloca ptr, align 8
  %11 = alloca ptr, align 8
  %12 = alloca ptr, align 8
  %13 = alloca ptr, align 8
  %14 = alloca ptr, align 8
  store ptr %0, ptr %3, align 8, !tbaa !28
  store ptr %1, ptr %4, align 8, !tbaa !213
  %15 = load ptr, ptr %3, align 8
  call void @llvm.lifetime.start.p0(i64 4, ptr %5) #3
  store i32 0, ptr %5, align 4, !tbaa !8
  call void @llvm.lifetime.start.p0(i64 4, ptr %6) #3
  store i32 0, ptr %6, align 4, !tbaa !8
  call void @llvm.lifetime.start.p0(i64 8, ptr %7) #3
  %16 = load ptr, ptr %4, align 8, !tbaa !213
  %17 = getelementptr inbounds nuw %"struct.seq::eq", ptr %16, i32 0, i32 0
  store ptr %17, ptr %7, align 8, !tbaa !214
  call void @llvm.lifetime.start.p0(i64 8, ptr %8) #3
  %18 = load ptr, ptr %7, align 8, !tbaa !214
  %19 = call noundef ptr @_ZNK15ref_vector_coreI4expr19ref_manager_wrapperIS0_11ast_managerEE5beginEv(ptr noundef nonnull align 8 dereferenceable(16) %18)
  store ptr %19, ptr %8, align 8, !tbaa !247
  call void @llvm.lifetime.start.p0(i64 8, ptr %9) #3
  %20 = load ptr, ptr %7, align 8, !tbaa !214
  %21 = call noundef ptr @_ZNK15ref_vector_coreI4expr19ref_manager_wrapperIS0_11ast_managerEE3endEv(ptr noundef nonnull align 8 dereferenceable(16) %20)
  store ptr %21, ptr %9, align 8, !tbaa !247
  br label %22

22:                                               ; preds = %36, %2
  %23 = load ptr, ptr %8, align 8, !tbaa !247
  %24 = load ptr, ptr %9, align 8, !tbaa !247
  %25 = icmp ne ptr %23, %24
  br i1 %25, label %27, label %26

26:                                               ; preds = %22
  call void @llvm.lifetime.end.p0(i64 8, ptr %9) #3
  call void @llvm.lifetime.end.p0(i64 8, ptr %8) #3
  call void @llvm.lifetime.end.p0(i64 8, ptr %7) #3
  br label %39

27:                                               ; preds = %22
  call void @llvm.lifetime.start.p0(i64 8, ptr %10) #3
  %28 = load ptr, ptr %8, align 8, !tbaa !247
  store ptr %28, ptr %10, align 8, !tbaa !247
  %29 = load ptr, ptr %10, align 8, !tbaa !247
  %30 = load ptr, ptr %29, align 8, !tbaa !235
  %31 = call noundef zeroext i1 @_ZNK3smt10theory_seq6is_varEP4expr(ptr noundef nonnull align 8 dereferenceable(4328) %15, ptr noundef %30)
  br i1 %31, label %32, label %35

32:                                               ; preds = %27
  %33 = load i32, ptr %5, align 4, !tbaa !8
  %34 = add i32 %33, 1
  store i32 %34, ptr %5, align 4, !tbaa !8
  br label %35

35:                                               ; preds = %32, %27
  call void @llvm.lifetime.end.p0(i64 8, ptr %10) #3
  br label %36

36:                                               ; preds = %35
  %37 = load ptr, ptr %8, align 8, !tbaa !247
  %38 = getelementptr inbounds nuw ptr, ptr %37, i32 1
  store ptr %38, ptr %8, align 8, !tbaa !247
  br label %22

39:                                               ; preds = %26
  call void @llvm.lifetime.start.p0(i64 8, ptr %11) #3
  %40 = load ptr, ptr %4, align 8, !tbaa !213
  %41 = getelementptr inbounds nuw %"struct.seq::eq", ptr %40, i32 0, i32 1
  store ptr %41, ptr %11, align 8, !tbaa !214
  call void @llvm.lifetime.start.p0(i64 8, ptr %12) #3
  %42 = load ptr, ptr %11, align 8, !tbaa !214
  %43 = call noundef ptr @_ZNK15ref_vector_coreI4expr19ref_manager_wrapperIS0_11ast_managerEE5beginEv(ptr noundef nonnull align 8 dereferenceable(16) %42)
  store ptr %43, ptr %12, align 8, !tbaa !247
  call void @llvm.lifetime.start.p0(i64 8, ptr %13) #3
  %44 = load ptr, ptr %11, align 8, !tbaa !214
  %45 = call noundef ptr @_ZNK15ref_vector_coreI4expr19ref_manager_wrapperIS0_11ast_managerEE3endEv(ptr noundef nonnull align 8 dereferenceable(16) %44)
  store ptr %45, ptr %13, align 8, !tbaa !247
  br label %46

46:                                               ; preds = %60, %39
  %47 = load ptr, ptr %12, align 8, !tbaa !247
  %48 = load ptr, ptr %13, align 8, !tbaa !247
  %49 = icmp ne ptr %47, %48
  br i1 %49, label %51, label %50

50:                                               ; preds = %46
  call void @llvm.lifetime.end.p0(i64 8, ptr %13) #3
  call void @llvm.lifetime.end.p0(i64 8, ptr %12) #3
  call void @llvm.lifetime.end.p0(i64 8, ptr %11) #3
  br label %63

51:                                               ; preds = %46
  call void @llvm.lifetime.start.p0(i64 8, ptr %14) #3
  %52 = load ptr, ptr %12, align 8, !tbaa !247
  store ptr %52, ptr %14, align 8, !tbaa !247
  %53 = load ptr, ptr %14, align 8, !tbaa !247
  %54 = load ptr, ptr %53, align 8, !tbaa !235
  %55 = call noundef zeroext i1 @_ZNK3smt10theory_seq6is_varEP4expr(ptr noundef nonnull align 8 dereferenceable(4328) %15, ptr noundef %54)
  br i1 %55, label %56, label %59

56:                                               ; preds = %51
  %57 = load i32, ptr %6, align 4, !tbaa !8
  %58 = add i32 %57, 1
  store i32 %58, ptr %6, align 4, !tbaa !8
  br label %59

59:                                               ; preds = %56, %51
  call void @llvm.lifetime.end.p0(i64 8, ptr %14) #3
  br label %60

60:                                               ; preds = %59
  %61 = load ptr, ptr %12, align 8, !tbaa !247
  %62 = getelementptr inbounds nuw ptr, ptr %61, i32 1
  store ptr %62, ptr %12, align 8, !tbaa !247
  br label %46

63:                                               ; preds = %50
  %64 = load i32, ptr %5, align 4, !tbaa !8
  %65 = icmp ugt i32 %64, 0
  br i1 %65, label %66, label %74

66:                                               ; preds = %63
  %67 = load i32, ptr %6, align 4, !tbaa !8
  %68 = icmp ugt i32 %67, 0
  br i1 %68, label %69, label %74

69:                                               ; preds = %66
  %70 = load i32, ptr %5, align 4, !tbaa !8
  %71 = load i32, ptr %6, align 4, !tbaa !8
  %72 = add i32 %70, %71
  %73 = icmp ugt i32 %72, 2
  br label %74

74:                                               ; preds = %69, %66, %63
  %75 = phi i1 [ false, %66 ], [ false, %63 ], [ %73, %69 ]
  call void @llvm.lifetime.end.p0(i64 4, ptr %6) #3
  call void @llvm.lifetime.end.p0(i64 4, ptr %5) #3
  ret i1 %75
}