; Function Attrs: mustprogress uwtable
define hidden noundef zeroext i1 @_ZN3smt10theory_seq10is_complexERKNS0_5depeqE(ptr noundef nonnull align 8 dereferenceable(4328) %0, ptr noundef nonnull readonly align 8 captures(none) dereferenceable(48) %1) local_unnamed_addr #4 align 2 {
  %3 = getelementptr inbounds nuw i8, ptr %1, i64 8
  %4 = load ptr, ptr %3, align 8, !tbaa !197
  %5 = icmp eq ptr %4, null
  br i1 %5, label %._crit_edge, label %_ZNK15ref_vector_coreI4expr19ref_manager_wrapperIS0_11ast_managerEE3endEv.exit

_ZNK15ref_vector_coreI4expr19ref_manager_wrapperIS0_11ast_managerEE3endEv.exit: ; preds = %2
  %6 = getelementptr inbounds i8, ptr %4, i64 -4
  %7 = load i32, ptr %6, align 4, !tbaa !195
  %8 = zext i32 %7 to i64
  %9 = getelementptr inbounds nuw ptr, ptr %4, i64 %8
  %.not31 = icmp eq i32 %7, 0
  br i1 %.not31, label %._crit_edge, label %.lr.ph

._crit_edge:                                      ; preds = %.lr.ph, %2, %_ZNK15ref_vector_coreI4expr19ref_manager_wrapperIS0_11ast_managerEE3endEv.exit
  %.0.lcssa = phi i32 [ 0, %_ZNK15ref_vector_coreI4expr19ref_manager_wrapperIS0_11ast_managerEE3endEv.exit ], [ 0, %2 ], [ %spec.select, %.lr.ph ]
  %10 = getelementptr inbounds nuw i8, ptr %1, i64 24
  %11 = load ptr, ptr %10, align 8, !tbaa !197
  %12 = icmp eq ptr %11, null
  br i1 %12, label %._crit_edge38.thread, label %_ZNK15ref_vector_coreI4expr19ref_manager_wrapperIS0_11ast_managerEE3endEv.exit30

_ZNK15ref_vector_coreI4expr19ref_manager_wrapperIS0_11ast_managerEE3endEv.exit30: ; preds = %._crit_edge
  %13 = getelementptr inbounds i8, ptr %11, i64 -4
  %14 = load i32, ptr %13, align 4, !tbaa !195
  %15 = zext i32 %14 to i64
  %16 = getelementptr inbounds nuw ptr, ptr %11, i64 %15
  %.not2734 = icmp eq i32 %14, 0
  br i1 %.not2734, label %._crit_edge38.thread, label %.lr.ph37

.lr.ph:                                           ; preds = %_ZNK15ref_vector_coreI4expr19ref_manager_wrapperIS0_11ast_managerEE3endEv.exit, %.lr.ph
  %.033 = phi i32 [ %spec.select, %.lr.ph ], [ 0, %_ZNK15ref_vector_coreI4expr19ref_manager_wrapperIS0_11ast_managerEE3endEv.exit ]
  %.02632 = phi ptr [ %20, %.lr.ph ], [ %4, %_ZNK15ref_vector_coreI4expr19ref_manager_wrapperIS0_11ast_managerEE3endEv.exit ]
  %17 = load ptr, ptr %.02632, align 8, !tbaa !198
  %18 = tail call noundef zeroext i1 @_ZNK3smt10theory_seq6is_varEP4expr(ptr noundef nonnull align 8 dereferenceable(4328) %0, ptr noundef %17)
  %19 = zext i1 %18 to i32
  %spec.select = add i32 %.033, %19
  %20 = getelementptr inbounds nuw i8, ptr %.02632, i64 8
  %.not = icmp eq ptr %20, %9
  br i1 %.not, label %._crit_edge, label %.lr.ph

._crit_edge38:                                    ; preds = %.lr.ph37
  %21 = icmp ne i32 %.0.lcssa, 0
  %22 = icmp ne i32 %spec.select28, 0
  %or.cond = select i1 %21, i1 %22, i1 false
  br i1 %or.cond, label %27, label %._crit_edge38.thread

.lr.ph37:                                         ; preds = %_ZNK15ref_vector_coreI4expr19ref_manager_wrapperIS0_11ast_managerEE3endEv.exit30, %.lr.ph37
  %.02336 = phi i32 [ %spec.select28, %.lr.ph37 ], [ 0, %_ZNK15ref_vector_coreI4expr19ref_manager_wrapperIS0_11ast_managerEE3endEv.exit30 ]
  %.02535 = phi ptr [ %26, %.lr.ph37 ], [ %11, %_ZNK15ref_vector_coreI4expr19ref_manager_wrapperIS0_11ast_managerEE3endEv.exit30 ]
  %23 = load ptr, ptr %.02535, align 8, !tbaa !198
  %24 = tail call noundef zeroext i1 @_ZNK3smt10theory_seq6is_varEP4expr(ptr noundef nonnull align 8 dereferenceable(4328) %0, ptr noundef %23)
  %25 = zext i1 %24 to i32
  %spec.select28 = add i32 %.02336, %25
  %26 = getelementptr inbounds nuw i8, ptr %.02535, i64 8
  %.not27 = icmp eq ptr %26, %16
  br i1 %.not27, label %._crit_edge38, label %.lr.ph37

27:                                               ; preds = %._crit_edge38
  %28 = add i32 %spec.select28, %.0.lcssa
  %29 = icmp ugt i32 %28, 2
  br label %._crit_edge38.thread

._crit_edge38.thread:                             ; preds = %._crit_edge, %_ZNK15ref_vector_coreI4expr19ref_manager_wrapperIS0_11ast_managerEE3endEv.exit30, %27, %._crit_edge38
  %30 = phi i1 [ false, %._crit_edge38 ], [ %29, %27 ], [ false, %_ZNK15ref_vector_coreI4expr19ref_manager_wrapperIS0_11ast_managerEE3endEv.exit30 ], [ false, %._crit_edge ]
  ret i1 %30
}